(lp0
S'poi'
p1
aS'salary'
p2
aS'total_payments'
p3
aS'bonus'
p4
aS'other'
p5
aS'deferred_income'
p6
aS'total_stock_value'
p7
aS'exercised_stock_options'
p8
aS'long_term_incentive'
p9
aS'restricted_stock'
p10
aS'from_poi_to_this_person'
p11
aS'shared_receipt_with_poi'
p12
aS'payments_plus_stock'
p13
a.